#include <math.h>
#include <stdio.h>
#include <stdlib.h>
#include <string.h>


int main()
{
	char s[500];
	int i=0,j,l,k,m;
	gets(s);
	l=strlen(s);
	for(j=0;j<=i;j++)
	{
		for(i=0;i+j+1<l;i++)
		{	
			for(k=0;k<=j;k++)
				if (s[i-k]!=s[i+1+k])
					break;
			if(k==j+1)
			{
				for(m=0;m<(j+1)*2;m++)
				printf("%c",s[i-j+m]);
				printf("\n");
			}
			if(i==l-1)
				break;
		}
	}
	return 0;
}